(dp0
S'half_size'
p1
S'yes'
p2
sS'motion'
p3
g2
sS'zone'
p4
S'manual'
p5
sS'skip_second'
p6
g2
sS'gap_length'
p7
S'1'
p8
sS'img_dir'
p9
S'images/<mouse_ID>/<img_option>'
p10
sS'show_video'
p11
g2
sS'crop_zone'
p12
S'no'
p13
sS'crop_whole'
p14
g13
sS'to_save'
p15
S'best'
p16
sS'k'
p17
S'k = 1'
p18
sS'max_jobs'
p19
S'8'
p20
sS'crop_face'
p21
g2
sS'aspect_ratio'
p22
S'16:9'
p23
sS'img_name'
p24
S'<img_option>_<video_name>_<frame_number>.png'
p25
sS'force_aspect_ratio'
p26
g13
sS'deinterlace'
p27
S'none'
p28
sS'speed'
p29
S'auto'
p30
sS'interval_length'
p31
S'9'
p32
sS'with_box'
p33
g13
sS'without_box'
p34
g2
s.